; Function Attrs: mustprogress nounwind uwtable
define hidden noundef ptr @_ZN14JfrJavaSupport21new_java_lang_IntegerEiP10JavaThread(i32 noundef %0, ptr noundef %1) local_unnamed_addr #0 align 2 {
  %3 = alloca %class.JavaValue, align 8
  %4 = alloca %class.JfrJavaArguments, align 8
  store i8 12, ptr %3, align 8
  call void @_ZN16JfrJavaArgumentsC1EP9JavaValuePKcS3_S3_P10JavaThread(ptr noundef nonnull align 8 dereferenceable(300) %4, ptr noundef nonnull %3, ptr noundef nonnull @.str.8, ptr noundef nonnull @.str.4, ptr noundef nonnull @.str.9, ptr noundef %1) #13
  %5 = getelementptr inbounds i8, ptr %1, i64 8
  %6 = load ptr, ptr %5, align 8
  %.not = icmp eq ptr %6, null
  br i1 %.not, label %7, label %21

7:                                                ; preds = %2
  call void @_ZN16JfrJavaArguments8push_intEi(ptr noundef nonnull align 8 dereferenceable(300) %4, i32 noundef %0) #13
  %8 = call noundef ptr @_ZNK16JfrJavaArguments6resultEv(ptr noundef nonnull align 8 dereferenceable(300) %4) #13
  call fastcc void @_ZL13create_objectP16JfrJavaArgumentsP9JavaValueP10JavaThread(ptr noundef nonnull %4, ptr noundef %8, ptr noundef nonnull %1)
  %9 = load ptr, ptr %5, align 8
  %.not.i = icmp eq ptr %9, null
  br i1 %.not.i, label %10, label %_ZN14JfrJavaSupport20new_object_local_refEP16JfrJavaArgumentsP10JavaThread.exit

10:                                               ; preds = %7
  %11 = getelementptr inbounds i8, ptr %8, i64 8
  %12 = load ptr, ptr %11, align 8
  %13 = icmp eq ptr %12, null
  br i1 %13, label %_ZN14JfrJavaSupport20new_object_local_refEP16JfrJavaArgumentsP10JavaThread.exit, label %14

14:                                               ; preds = %10
  %15 = getelementptr inbounds i8, ptr %1, i64 1072
  %16 = load ptr, ptr %15, align 8
  %17 = call noundef ptr @_ZN14JNIHandleBlock15allocate_handleEP10JavaThreadP7oopDescN17AllocFailStrategy13AllocFailEnumE(ptr noundef nonnull align 8 dereferenceable(296) %16, ptr noundef nonnull %1, ptr noundef nonnull %12, i32 noundef 0) #13
  store ptr %17, ptr %11, align 8
  br label %_ZN14JfrJavaSupport20new_object_local_refEP16JfrJavaArgumentsP10JavaThread.exit

_ZN14JfrJavaSupport20new_object_local_refEP16JfrJavaArgumentsP10JavaThread.exit: ; preds = %7, %10, %14
  %18 = call noundef ptr @_ZNK16JfrJavaArguments6resultEv(ptr noundef nonnull align 8 dereferenceable(300) %4) #13
  %19 = getelementptr inbounds i8, ptr %18, i64 8
  %20 = load ptr, ptr %19, align 8
  br label %21

21:                                               ; preds = %2, %_ZN14JfrJavaSupport20new_object_local_refEP16JfrJavaArgumentsP10JavaThread.exit
  %.0 = phi ptr [ %20, %_ZN14JfrJavaSupport20new_object_local_refEP16JfrJavaArgumentsP10JavaThread.exit ], [ null, %2 ]
  ret ptr %.0
}